target datalayout = "e-m:e-p270:32:32-p271:32:32-p272:64:64-i64:64-i128:128-f80:128-n8:16:32:64-S128"
target triple = "x86_64-pc-linux-gnu"

%struct.nghttp2_extpri = type { i32, i32 }
%struct.sfparse_parser = type { ptr, ptr, i32 }
%struct.sfparse_vec = type { ptr, i64 }
%struct.sfparse_value = type { i32, i32, %union.anon }
%union.anon = type { %struct.sfparse_decimal }
%struct.sfparse_decimal = type { i64, i64 }

; Function Attrs: nounwind uwtable
define hidden i32 @nghttp2_http_parse_priority(ptr noundef %0, ptr noundef %1, i64 noundef %2) #0 {
  %4 = alloca i32, align 4
  %5 = alloca ptr, align 8
  %6 = alloca ptr, align 8
  %7 = alloca i64, align 8
  %8 = alloca %struct.nghttp2_extpri, align 4
  %9 = alloca %struct.sfparse_parser, align 8
  %10 = alloca %struct.sfparse_vec, align 8
  %11 = alloca %struct.sfparse_value, align 8
  %12 = alloca i32, align 4
  %13 = alloca i32, align 4
  store ptr %0, ptr %5, align 8, !tbaa !72
  store ptr %1, ptr %6, align 8, !tbaa !57
  store i64 %2, ptr %7, align 8, !tbaa !22
  call void @llvm.lifetime.start.p0(i64 8, ptr %8) #6
  %14 = load ptr, ptr %5, align 8, !tbaa !72
  call void @llvm.memcpy.p0.p0.i64(ptr align 4 %8, ptr align 4 %14, i64 8, i1 false), !tbaa.struct !74
  call void @llvm.lifetime.start.p0(i64 24, ptr %9) #6
  call void @llvm.lifetime.start.p0(i64 16, ptr %10) #6
  call void @llvm.lifetime.start.p0(i64 24, ptr %11) #6
  call void @llvm.lifetime.start.p0(i64 4, ptr %12) #6
  %15 = load ptr, ptr %6, align 8, !tbaa !57
  %16 = load i64, ptr %7, align 8, !tbaa !22
  call void @sfparse_parser_init(ptr noundef %9, ptr noundef %15, i64 noundef %16)
  br label %17

17:                                               ; preds = %64, %30, %3
  %18 = call i32 @sfparse_parser_dict(ptr noundef %9, ptr noundef %10, ptr noundef %11)
  store i32 %18, ptr %12, align 4, !tbaa !11
  %19 = load i32, ptr %12, align 4, !tbaa !11
  %20 = icmp ne i32 %19, 0
  br i1 %20, label %21, label %26

21:                                               ; preds = %17
  %22 = load i32, ptr %12, align 4, !tbaa !11
  %23 = icmp eq i32 %22, -2
  br i1 %23, label %24, label %25

24:                                               ; preds = %21
  br label %65

25:                                               ; preds = %21
  store i32 -501, ptr %4, align 4
  store i32 1, ptr %13, align 4
  br label %67

26:                                               ; preds = %17
  %27 = getelementptr inbounds nuw %struct.sfparse_vec, ptr %10, i32 0, i32 1
  %28 = load i64, ptr %27, align 8, !tbaa !75
  %29 = icmp ne i64 %28, 1
  br i1 %29, label %30, label %31

30:                                               ; preds = %26
  br label %17

31:                                               ; preds = %26
  %32 = getelementptr inbounds nuw %struct.sfparse_vec, ptr %10, i32 0, i32 0
  %33 = load ptr, ptr %32, align 8, !tbaa !77
  %34 = getelementptr inbounds i8, ptr %33, i64 0
  %35 = load i8, ptr %34, align 1, !tbaa !21
  %36 = zext i8 %35 to i32
  switch i32 %36, label %64 [
    i32 105, label %37
    i32 117, label %46
  ]

37:                                               ; preds = %31
  %38 = getelementptr inbounds nuw %struct.sfparse_value, ptr %11, i32 0, i32 0
  %39 = load i32, ptr %38, align 8, !tbaa !78
  %40 = icmp ne i32 %39, 0
  br i1 %40, label %41, label %42

41:                                               ; preds = %37
  store i32 -501, ptr %4, align 4
  store i32 1, ptr %13, align 4
  br label %67

42:                                               ; preds = %37
  %43 = getelementptr inbounds nuw %struct.sfparse_value, ptr %11, i32 0, i32 2
  %44 = load i32, ptr %43, align 8, !tbaa !21
  %45 = getelementptr inbounds nuw %struct.nghttp2_extpri, ptr %8, i32 0, i32 1
  store i32 %44, ptr %45, align 4, !tbaa !80
  br label %64

46:                                               ; preds = %31
  %47 = getelementptr inbounds nuw %struct.sfparse_value, ptr %11, i32 0, i32 0
  %48 = load i32, ptr %47, align 8, !tbaa !78
  %49 = icmp ne i32 %48, 1
  br i1 %49, label %58, label %50

50:                                               ; preds = %46
  %51 = getelementptr inbounds nuw %struct.sfparse_value, ptr %11, i32 0, i32 2
  %52 = load i64, ptr %51, align 8, !tbaa !21
  %53 = icmp slt i64 %52, 0
  br i1 %53, label %58, label %54

54:                                               ; preds = %50
  %55 = getelementptr inbounds nuw %struct.sfparse_value, ptr %11, i32 0, i32 2
  %56 = load i64, ptr %55, align 8, !tbaa !21
  %57 = icmp slt i64 7, %56
  br i1 %57, label %58, label %59

58:                                               ; preds = %54, %50, %46
  store i32 -501, ptr %4, align 4
  store i32 1, ptr %13, align 4
  br label %67

59:                                               ; preds = %54
  %60 = getelementptr inbounds nuw %struct.sfparse_value, ptr %11, i32 0, i32 2
  %61 = load i64, ptr %60, align 8, !tbaa !21
  %62 = trunc i64 %61 to i32
  %63 = getelementptr inbounds nuw %struct.nghttp2_extpri, ptr %8, i32 0, i32 0
  store i32 %62, ptr %63, align 4, !tbaa !82
  br label %64

64:                                               ; preds = %31, %59, %42
  br label %17

65:                                               ; preds = %24
  %66 = load ptr, ptr %5, align 8, !tbaa !72
  call void @llvm.memcpy.p0.p0.i64(ptr align 4 %66, ptr align 4 %8, i64 8, i1 false), !tbaa.struct !74
  store i32 0, ptr %4, align 4
  store i32 1, ptr %13, align 4
  br label %67

67:                                               ; preds = %65, %58, %41, %25
  call void @llvm.lifetime.end.p0(i64 4, ptr %12) #6
  call void @llvm.lifetime.end.p0(i64 24, ptr %11) #6
  call void @llvm.lifetime.end.p0(i64 16, ptr %10) #6
  call void @llvm.lifetime.end.p0(i64 24, ptr %9) #6
  call void @llvm.lifetime.end.p0(i64 8, ptr %8) #6
  %68 = load i32, ptr %4, align 4
  ret i32 %68
}