; Function Attrs: nounwind uwtable
define hidden range(i32 -501, 1) i32 @nghttp2_http_parse_priority(ptr noundef captures(none) %0, ptr noundef %1, i64 noundef %2) local_unnamed_addr #0 {
  %4 = alloca %struct.sfparse_parser, align 8
  %5 = alloca %struct.sfparse_vec, align 8
  %6 = alloca %struct.sfparse_value, align 8
  %.sroa.0.0.copyload = load i32, ptr %0, align 4, !tbaa !67
  %.sroa.5.0..sroa_idx = getelementptr inbounds nuw i8, ptr %0, i64 4
  %.sroa.5.0.copyload = load i32, ptr %.sroa.5.0..sroa_idx, align 4, !tbaa !67
  call void @llvm.lifetime.start.p0(i64 24, ptr nonnull %4) #9
  call void @llvm.lifetime.start.p0(i64 16, ptr nonnull %5) #9
  call void @llvm.lifetime.start.p0(i64 24, ptr nonnull %6) #9
  call void @sfparse_parser_init(ptr noundef nonnull %4, ptr noundef %1, i64 noundef %2) #9
  %7 = getelementptr inbounds nuw i8, ptr %5, i64 8
  %8 = getelementptr inbounds nuw i8, ptr %6, i64 8
  br label %.outer.outer

.outer.outer:                                     ; preds = %18, %3
  %.sroa.5.0.ph.ph = phi i32 [ %19, %18 ], [ %.sroa.5.0.copyload, %3 ]
  %.sroa.0.0.ph.ph = phi i32 [ %.sroa.0.0.ph.ph40, %18 ], [ %.sroa.0.0.copyload, %3 ]
  br label %.outer.outer39

.outer.outer39:                                   ; preds = %.outer.outer, %25
  %.sroa.0.0.ph.ph40 = phi i32 [ %.sroa.0.0.ph.ph, %.outer.outer ], [ %26, %25 ]
  br label %.outer

.outer:                                           ; preds = %.outer.outer39, %13
  br label %9

9:                                                ; preds = %.outer, %11
  %10 = call i32 @sfparse_parser_dict(ptr noundef nonnull %4, ptr noundef nonnull %5, ptr noundef nonnull %6) #9
  switch i32 %10, label %.loopexit [
    i32 0, label %11
    i32 -2, label %27
  ]

11:                                               ; preds = %9
  %12 = load i64, ptr %7, align 8, !tbaa !68
  %.not16 = icmp eq i64 %12, 1
  br i1 %.not16, label %13, label %9

13:                                               ; preds = %11
  %14 = load ptr, ptr %5, align 8, !tbaa !70
  %15 = load i8, ptr %14, align 1, !tbaa !15
  switch i8 %15, label %.outer [
    i8 105, label %16
    i8 117, label %20
  ]

16:                                               ; preds = %13
  %17 = load i32, ptr %6, align 8, !tbaa !71
  %.not17 = icmp eq i32 %17, 0
  br i1 %.not17, label %18, label %.loopexit

18:                                               ; preds = %16
  %19 = load i32, ptr %8, align 8, !tbaa !15
  br label %.outer.outer

20:                                               ; preds = %13
  %21 = load i32, ptr %6, align 8, !tbaa !71
  %22 = icmp ne i32 %21, 1
  %23 = load i64, ptr %8, align 8
  %24 = icmp ugt i64 %23, 7
  %or.cond5 = select i1 %22, i1 true, i1 %24
  br i1 %or.cond5, label %.loopexit, label %25

25:                                               ; preds = %20
  %26 = trunc nuw nsw i64 %23 to i32
  br label %.outer.outer39

27:                                               ; preds = %9
  store i32 %.sroa.0.0.ph.ph40, ptr %0, align 4, !tbaa !67
  store i32 %.sroa.5.0.ph.ph, ptr %.sroa.5.0..sroa_idx, align 4, !tbaa !67
  br label %.loopexit

.loopexit:                                        ; preds = %20, %16, %9, %27
  %.0 = phi i32 [ 0, %27 ], [ -501, %9 ], [ -501, %16 ], [ -501, %20 ]
  call void @llvm.lifetime.end.p0(i64 24, ptr nonnull %6) #9
  call void @llvm.lifetime.end.p0(i64 16, ptr nonnull %5) #9
  call void @llvm.lifetime.end.p0(i64 24, ptr nonnull %4) #9
  ret i32 %.0
}